target datalayout = "e-m:e-p270:32:32-p271:32:32-p272:64:64-i64:64-i128:128-f80:128-n8:16:32:64-S128"
target triple = "x86_64-pc-linux-gnu"

%struct.location = type { i32, i32 }
%struct.block = type { ptr, ptr }
%struct.inst = type { ptr, ptr, i32, %struct.anon, ptr, %struct.location, ptr, ptr, i32, i32, i32, i32, %struct.block, %struct.block, ptr, i32 }
%struct.anon = type { i16, ptr, %struct.jv, ptr }
%struct.jv = type { i8, i8, i16, i32, %union.anon }
%union.anon = type { ptr }
%struct.opcode_description = type { i32, ptr, i32, i32, i32, i32 }

@.str.14 = private unnamed_addr constant [11 x i8] c"*anonlabel\00", align 1

; Function Attrs: nounwind uwtable
define internal i32 @block_bind_subblock_inner(ptr noundef %0, ptr %1, ptr %2, ptr %3, ptr %4, i32 noundef %5, i32 noundef %6) #0 {
  %8 = alloca %struct.block, align 8
  %9 = alloca %struct.block, align 8
  %10 = alloca ptr, align 8
  %11 = alloca i32, align 4
  %12 = alloca i32, align 4
  %13 = alloca i32, align 4
  %14 = alloca ptr, align 8
  %15 = alloca i32, align 4
  %16 = getelementptr inbounds nuw { ptr, ptr }, ptr %8, i32 0, i32 0
  store ptr %1, ptr %16, align 8
  %17 = getelementptr inbounds nuw { ptr, ptr }, ptr %8, i32 0, i32 1
  store ptr %2, ptr %17, align 8
  %18 = getelementptr inbounds nuw { ptr, ptr }, ptr %9, i32 0, i32 0
  store ptr %3, ptr %18, align 8
  %19 = getelementptr inbounds nuw { ptr, ptr }, ptr %9, i32 0, i32 1
  store ptr %4, ptr %19, align 8
  store ptr %0, ptr %10, align 8, !tbaa !111
  store i32 %5, ptr %11, align 4, !tbaa !26
  store i32 %6, ptr %12, align 4, !tbaa !26
  %20 = getelementptr inbounds nuw %struct.block, ptr %8, i32 0, i32 0
  %21 = load ptr, ptr %20, align 8, !tbaa !4
  %22 = getelementptr inbounds nuw %struct.block, ptr %8, i32 0, i32 0
  %23 = load ptr, ptr %22, align 8, !tbaa !4
  %24 = getelementptr inbounds nuw %struct.inst, ptr %23, i32 0, i32 6
  store ptr %21, ptr %24, align 8, !tbaa !35
  call void @llvm.lifetime.start.p0(i64 4, ptr %13) #7
  store i32 0, ptr %13, align 4, !tbaa !26
  call void @llvm.lifetime.start.p0(i64 8, ptr %14) #7
  %25 = getelementptr inbounds nuw %struct.block, ptr %9, i32 0, i32 0
  %26 = load ptr, ptr %25, align 8, !tbaa !4
  store ptr %26, ptr %14, align 8, !tbaa !13
  br label %27

27:                                               ; preds = %206, %7
  %28 = load ptr, ptr %14, align 8, !tbaa !13
  %29 = icmp ne ptr %28, null
  br i1 %29, label %31, label %30

30:                                               ; preds = %27
  call void @llvm.lifetime.end.p0(i64 8, ptr %14) #7
  br label %210

31:                                               ; preds = %27
  %32 = load ptr, ptr %14, align 8, !tbaa !13
  %33 = getelementptr inbounds nuw %struct.inst, ptr %32, i32 0, i32 8
  %34 = load i32, ptr %33, align 8, !tbaa !37
  %35 = icmp eq i32 %34, 0
  br i1 %35, label %36, label %37

36:                                               ; preds = %31
  br label %206

37:                                               ; preds = %31
  call void @llvm.lifetime.start.p0(i64 4, ptr %15) #7
  %38 = load ptr, ptr %14, align 8, !tbaa !13
  %39 = getelementptr inbounds nuw %struct.inst, ptr %38, i32 0, i32 2
  %40 = load i32, ptr %39, align 8, !tbaa !33
  %41 = call ptr @opcode_describe(i32 noundef %40)
  %42 = getelementptr inbounds nuw %struct.opcode_description, ptr %41, i32 0, i32 2
  %43 = load i32, ptr %42, align 8, !tbaa !48
  store i32 %43, ptr %15, align 4, !tbaa !26
  %44 = load i32, ptr %15, align 4, !tbaa !26
  %45 = load i32, ptr %11, align 4, !tbaa !26
  %46 = and i32 %44, %45
  %47 = load i32, ptr %11, align 4, !tbaa !26
  %48 = and i32 %47, -2049
  %49 = icmp eq i32 %46, %48
  br i1 %49, label %50, label %120

50:                                               ; preds = %37
  %51 = load ptr, ptr %14, align 8, !tbaa !13
  %52 = getelementptr inbounds nuw %struct.inst, ptr %51, i32 0, i32 6
  %53 = load ptr, ptr %52, align 8, !tbaa !35
  %54 = icmp eq ptr %53, null
  br i1 %54, label %55, label %120

55:                                               ; preds = %50
  %56 = load ptr, ptr %14, align 8, !tbaa !13
  %57 = getelementptr inbounds nuw %struct.inst, ptr %56, i32 0, i32 7
  %58 = load ptr, ptr %57, align 8, !tbaa !36
  %59 = getelementptr inbounds nuw %struct.block, ptr %8, i32 0, i32 0
  %60 = load ptr, ptr %59, align 8, !tbaa !4
  %61 = getelementptr inbounds nuw %struct.inst, ptr %60, i32 0, i32 7
  %62 = load ptr, ptr %61, align 8, !tbaa !36
  %63 = call i32 @strcmp(ptr noundef %58, ptr noundef %62) #8
  %64 = icmp ne i32 %63, 0
  br i1 %64, label %65, label %98

65:                                               ; preds = %55
  %66 = load i32, ptr %11, align 4, !tbaa !26
  %67 = and i32 %66, 2048
  %68 = icmp ne i32 %67, 0
  br i1 %68, label %69, label %120

69:                                               ; preds = %65
  %70 = load ptr, ptr %14, align 8, !tbaa !13
  %71 = getelementptr inbounds nuw %struct.inst, ptr %70, i32 0, i32 7
  %72 = load ptr, ptr %71, align 8, !tbaa !36
  %73 = getelementptr inbounds i8, ptr %72, i64 0
  %74 = load i8, ptr %73, align 1, !tbaa !42
  %75 = sext i8 %74 to i32
  %76 = icmp eq i32 %75, 42
  br i1 %76, label %77, label %120

77:                                               ; preds = %69
  %78 = load i32, ptr %12, align 4, !tbaa !26
  %79 = icmp sle i32 %78, 3
  br i1 %79, label %80, label %120

80:                                               ; preds = %77
  %81 = load ptr, ptr %14, align 8, !tbaa !13
  %82 = getelementptr inbounds nuw %struct.inst, ptr %81, i32 0, i32 7
  %83 = load ptr, ptr %82, align 8, !tbaa !36
  %84 = getelementptr inbounds i8, ptr %83, i64 1
  %85 = load i8, ptr %84, align 1, !tbaa !42
  %86 = sext i8 %85 to i32
  %87 = load i32, ptr %12, align 4, !tbaa !26
  %88 = add nsw i32 49, %87
  %89 = icmp eq i32 %86, %88
  br i1 %89, label %90, label %120

90:                                               ; preds = %80
  %91 = load ptr, ptr %14, align 8, !tbaa !13
  %92 = getelementptr inbounds nuw %struct.inst, ptr %91, i32 0, i32 7
  %93 = load ptr, ptr %92, align 8, !tbaa !36
  %94 = getelementptr inbounds i8, ptr %93, i64 2
  %95 = load i8, ptr %94, align 1, !tbaa !42
  %96 = sext i8 %95 to i32
  %97 = icmp eq i32 %96, 0
  br i1 %97, label %98, label %120

98:                                               ; preds = %90, %55
  %99 = load ptr, ptr %14, align 8, !tbaa !13
  %100 = getelementptr inbounds nuw %struct.inst, ptr %99, i32 0, i32 11
  %101 = load i32, ptr %100, align 4, !tbaa !40
  %102 = icmp eq i32 %101, -1
  br i1 %102, label %112, label %103

103:                                              ; preds = %98
  %104 = load ptr, ptr %14, align 8, !tbaa !13
  %105 = getelementptr inbounds nuw %struct.inst, ptr %104, i32 0, i32 11
  %106 = load i32, ptr %105, align 4, !tbaa !40
  %107 = getelementptr inbounds nuw %struct.block, ptr %8, i32 0, i32 0
  %108 = load ptr, ptr %107, align 8, !tbaa !4
  %109 = getelementptr inbounds nuw %struct.inst, ptr %108, i32 0, i32 10
  %110 = load i32, ptr %109, align 8, !tbaa !39
  %111 = icmp eq i32 %106, %110
  br i1 %111, label %112, label %119

112:                                              ; preds = %103, %98
  %113 = getelementptr inbounds nuw %struct.block, ptr %8, i32 0, i32 0
  %114 = load ptr, ptr %113, align 8, !tbaa !4
  %115 = load ptr, ptr %14, align 8, !tbaa !13
  %116 = getelementptr inbounds nuw %struct.inst, ptr %115, i32 0, i32 6
  store ptr %114, ptr %116, align 8, !tbaa !35
  %117 = load i32, ptr %13, align 4, !tbaa !26
  %118 = add nsw i32 %117, 1
  store i32 %118, ptr %13, align 4, !tbaa !26
  br label %119

119:                                              ; preds = %112, %103
  br label %149

120:                                              ; preds = %90, %80, %77, %69, %65, %50, %37
  %121 = load i32, ptr %15, align 4, !tbaa !26
  %122 = load i32, ptr %11, align 4, !tbaa !26
  %123 = and i32 %121, %122
  %124 = load i32, ptr %11, align 4, !tbaa !26
  %125 = and i32 %124, -2049
  %126 = icmp eq i32 %123, %125
  br i1 %126, label %127, label %148

127:                                              ; preds = %120
  %128 = load ptr, ptr %14, align 8, !tbaa !13
  %129 = getelementptr inbounds nuw %struct.inst, ptr %128, i32 0, i32 6
  %130 = load ptr, ptr %129, align 8, !tbaa !35
  %131 = icmp ne ptr %130, null
  br i1 %131, label %132, label %148

132:                                              ; preds = %127
  %133 = getelementptr inbounds nuw %struct.block, ptr %8, i32 0, i32 0
  %134 = load ptr, ptr %133, align 8, !tbaa !4
  %135 = getelementptr inbounds nuw %struct.inst, ptr %134, i32 0, i32 7
  %136 = load ptr, ptr %135, align 8, !tbaa !36
  %137 = call i32 @strncmp(ptr noundef %136, ptr noundef @.str.14, i64 noundef 10) #8
  %138 = icmp ne i32 %137, 0
  br i1 %138, label %148, label %139

139:                                              ; preds = %132
  %140 = load ptr, ptr %14, align 8, !tbaa !13
  %141 = getelementptr inbounds nuw %struct.inst, ptr %140, i32 0, i32 7
  %142 = load ptr, ptr %141, align 8, !tbaa !36
  %143 = call i32 @strncmp(ptr noundef %142, ptr noundef @.str.14, i64 noundef 10) #8
  %144 = icmp ne i32 %143, 0
  br i1 %144, label %148, label %145

145:                                              ; preds = %139
  %146 = load i32, ptr %12, align 4, !tbaa !26
  %147 = add nsw i32 %146, 1
  store i32 %147, ptr %12, align 4, !tbaa !26
  br label %148

148:                                              ; preds = %145, %139, %132, %127, %120
  br label %149

149:                                              ; preds = %148, %119
  %150 = load ptr, ptr %14, align 8, !tbaa !13
  %151 = getelementptr inbounds nuw %struct.inst, ptr %150, i32 0, i32 7
  %152 = load ptr, ptr %151, align 8, !tbaa !36
  %153 = icmp ne ptr %152, null
  br i1 %153, label %154, label %160

154:                                              ; preds = %149
  %155 = load ptr, ptr %14, align 8, !tbaa !13
  %156 = getelementptr inbounds nuw %struct.inst, ptr %155, i32 0, i32 6
  %157 = load ptr, ptr %156, align 8, !tbaa !35
  %158 = icmp ne ptr %157, null
  %159 = xor i1 %158, true
  br label %160

160:                                              ; preds = %154, %149
  %161 = phi i1 [ false, %149 ], [ %159, %154 ]
  %162 = zext i1 %161 to i32
  %163 = load ptr, ptr %14, align 8, !tbaa !13
  %164 = getelementptr inbounds nuw %struct.inst, ptr %163, i32 0, i32 8
  store i32 %162, ptr %164, align 8, !tbaa !37
  %165 = load ptr, ptr %14, align 8, !tbaa !13
  %166 = getelementptr inbounds nuw %struct.inst, ptr %165, i32 0, i32 8
  %167 = load ptr, ptr %14, align 8, !tbaa !13
  %168 = getelementptr inbounds nuw %struct.inst, ptr %167, i32 0, i32 12
  %169 = load i32, ptr %11, align 4, !tbaa !26
  %170 = load i32, ptr %12, align 4, !tbaa !26
  %171 = getelementptr inbounds nuw { ptr, ptr }, ptr %8, i32 0, i32 0
  %172 = load ptr, ptr %171, align 8
  %173 = getelementptr inbounds nuw { ptr, ptr }, ptr %8, i32 0, i32 1
  %174 = load ptr, ptr %173, align 8
  %175 = getelementptr inbounds nuw { ptr, ptr }, ptr %168, i32 0, i32 0
  %176 = load ptr, ptr %175, align 8
  %177 = getelementptr inbounds nuw { ptr, ptr }, ptr %168, i32 0, i32 1
  %178 = load ptr, ptr %177, align 8
  %179 = call i32 @block_bind_subblock_inner(ptr noundef %166, ptr %172, ptr %174, ptr %176, ptr %178, i32 noundef %169, i32 noundef %170)
  %180 = load i32, ptr %13, align 4, !tbaa !26
  %181 = add nsw i32 %180, %179
  store i32 %181, ptr %13, align 4, !tbaa !26
  %182 = load ptr, ptr %14, align 8, !tbaa !13
  %183 = getelementptr inbounds nuw %struct.inst, ptr %182, i32 0, i32 8
  %184 = load ptr, ptr %14, align 8, !tbaa !13
  %185 = getelementptr inbounds nuw %struct.inst, ptr %184, i32 0, i32 13
  %186 = load i32, ptr %11, align 4, !tbaa !26
  %187 = load i32, ptr %12, align 4, !tbaa !26
  %188 = getelementptr inbounds nuw { ptr, ptr }, ptr %8, i32 0, i32 0
  %189 = load ptr, ptr %188, align 8
  %190 = getelementptr inbounds nuw { ptr, ptr }, ptr %8, i32 0, i32 1
  %191 = load ptr, ptr %190, align 8
  %192 = getelementptr inbounds nuw { ptr, ptr }, ptr %185, i32 0, i32 0
  %193 = load ptr, ptr %192, align 8
  %194 = getelementptr inbounds nuw { ptr, ptr }, ptr %185, i32 0, i32 1
  %195 = load ptr, ptr %194, align 8
  %196 = call i32 @block_bind_subblock_inner(ptr noundef %183, ptr %189, ptr %191, ptr %193, ptr %195, i32 noundef %186, i32 noundef %187)
  %197 = load i32, ptr %13, align 4, !tbaa !26
  %198 = add nsw i32 %197, %196
  store i32 %198, ptr %13, align 4, !tbaa !26
  %199 = load ptr, ptr %14, align 8, !tbaa !13
  %200 = getelementptr inbounds nuw %struct.inst, ptr %199, i32 0, i32 8
  %201 = load i32, ptr %200, align 8, !tbaa !37
  %202 = icmp ne i32 %201, 0
  br i1 %202, label %203, label %205

203:                                              ; preds = %160
  %204 = load ptr, ptr %10, align 8, !tbaa !111
  store i32 1, ptr %204, align 4, !tbaa !26
  br label %205

205:                                              ; preds = %203, %160
  call void @llvm.lifetime.end.p0(i64 4, ptr %15) #7
  br label %206

206:                                              ; preds = %205, %36
  %207 = load ptr, ptr %14, align 8, !tbaa !13
  %208 = getelementptr inbounds nuw %struct.inst, ptr %207, i32 0, i32 0
  %209 = load ptr, ptr %208, align 8, !tbaa !28
  store ptr %209, ptr %14, align 8, !tbaa !13
  br label %27, !llvm.loop !113

210:                                              ; preds = %30
  %211 = load i32, ptr %13, align 4, !tbaa !26
  call void @llvm.lifetime.end.p0(i64 4, ptr %13) #7
  ret i32 %211
}