; Function Attrs: nounwind uwtable
define internal fastcc i32 @block_bind_subblock_inner(ptr noundef nonnull writeonly captures(none) %0, ptr %1, ptr captures(address_is_null) %2, i32 noundef range(i32 1024, 5) %3, i32 noundef %4) unnamed_addr #1 {
  %6 = getelementptr inbounds nuw i8, ptr %1, i64 80
  store ptr %1, ptr %6, align 8, !tbaa !33
  %.not1 = icmp eq ptr %2, null
  br i1 %.not1, label %._crit_edge, label %.lr.ph

.lr.ph:                                           ; preds = %5
  %7 = getelementptr inbounds nuw i8, ptr %1, i64 88
  %8 = and i32 %3, 2048
  %.not56 = icmp eq i32 %8, 0
  %9 = getelementptr inbounds nuw i8, ptr %1, i64 104
  br label %10

._crit_edge:                                      ; preds = %82, %5
  %.051.lcssa = phi i32 [ 0, %5 ], [ %.152, %82 ]
  ret i32 %.051.lcssa

10:                                               ; preds = %.lr.ph, %82
  %.04 = phi i32 [ %4, %.lr.ph ], [ %.1, %82 ]
  %.0503 = phi ptr [ %2, %.lr.ph ], [ %83, %82 ]
  %.0512 = phi i32 [ 0, %.lr.ph ], [ %.152, %82 ]
  %11 = getelementptr inbounds nuw i8, ptr %.0503, i64 96
  %12 = load i32, ptr %11, align 8, !tbaa !31
  %13 = icmp eq i32 %12, 0
  br i1 %13, label %82, label %14

14:                                               ; preds = %10
  %15 = getelementptr inbounds nuw i8, ptr %.0503, i64 16
  %16 = load i32, ptr %15, align 8, !tbaa !25
  %17 = tail call ptr @opcode_describe(i32 noundef %16) #17
  %18 = getelementptr inbounds nuw i8, ptr %17, i64 16
  %19 = load i32, ptr %18, align 8, !tbaa !38
  %20 = xor i32 %19, -2049
  %21 = and i32 %20, %3
  %22 = icmp eq i32 %21, 0
  br i1 %22, label %23, label %.critedge

23:                                               ; preds = %14
  %24 = getelementptr inbounds nuw i8, ptr %.0503, i64 80
  %25 = load ptr, ptr %24, align 8, !tbaa !33
  %26 = icmp eq ptr %25, null
  br i1 %26, label %27, label %56

27:                                               ; preds = %23
  %28 = getelementptr inbounds nuw i8, ptr %.0503, i64 88
  %29 = load ptr, ptr %28, align 8, !tbaa !30
  %30 = load ptr, ptr %7, align 8, !tbaa !30
  %31 = tail call i32 @strcmp(ptr noundef nonnull dereferenceable(1) %29, ptr noundef nonnull dereferenceable(1) %30) #18
  %.not55 = icmp eq i32 %31, 0
  br i1 %.not55, label %47, label %32

32:                                               ; preds = %27
  br i1 %.not56, label %.critedge, label %33

33:                                               ; preds = %32
  %34 = load i8, ptr %29, align 1, !tbaa !29
  %35 = icmp eq i8 %34, 42
  %36 = icmp slt i32 %.04, 4
  %or.cond = select i1 %35, i1 %36, i1 false
  br i1 %or.cond, label %37, label %.critedge

37:                                               ; preds = %33
  %38 = getelementptr inbounds nuw i8, ptr %29, i64 1
  %39 = load i8, ptr %38, align 1, !tbaa !29
  %40 = sext i8 %39 to i32
  %41 = add nsw i32 %.04, 49
  %42 = icmp eq i32 %41, %40
  br i1 %42, label %43, label %.critedge

43:                                               ; preds = %37
  %44 = getelementptr inbounds nuw i8, ptr %29, i64 2
  %45 = load i8, ptr %44, align 1, !tbaa !29
  %46 = icmp eq i8 %45, 0
  br i1 %46, label %47, label %.critedge

47:                                               ; preds = %43, %27
  %48 = getelementptr inbounds nuw i8, ptr %.0503, i64 108
  %49 = load i32, ptr %48, align 4, !tbaa !28
  %50 = icmp eq i32 %49, -1
  br i1 %50, label %54, label %51

51:                                               ; preds = %47
  %52 = load i32, ptr %9, align 8, !tbaa !27
  %53 = icmp eq i32 %49, %52
  br i1 %53, label %54, label %.critedge

54:                                               ; preds = %51, %47
  store ptr %1, ptr %24, align 8, !tbaa !33
  %55 = add nsw i32 %.0512, 1
  br label %.critedge

56:                                               ; preds = %23
  %57 = load ptr, ptr %7, align 8, !tbaa !30
  %58 = tail call i32 @strncmp(ptr noundef nonnull dereferenceable(1) %57, ptr noundef nonnull dereferenceable(11) @.str.14, i64 noundef 10) #18
  %.not58 = icmp eq i32 %58, 0
  br i1 %.not58, label %59, label %.critedge

59:                                               ; preds = %56
  %60 = getelementptr inbounds nuw i8, ptr %.0503, i64 88
  %61 = load ptr, ptr %60, align 8, !tbaa !30
  %62 = tail call i32 @strncmp(ptr noundef nonnull dereferenceable(1) %61, ptr noundef nonnull dereferenceable(11) @.str.14, i64 noundef 10) #18
  %.not59 = icmp eq i32 %62, 0
  %63 = zext i1 %.not59 to i32
  %spec.select = add nsw i32 %.04, %63
  br label %.critedge

.critedge:                                        ; preds = %43, %37, %33, %32, %59, %14, %56, %51, %54
  %.253 = phi i32 [ %55, %54 ], [ %.0512, %51 ], [ %.0512, %56 ], [ %.0512, %59 ], [ %.0512, %14 ], [ %.0512, %32 ], [ %.0512, %33 ], [ %.0512, %37 ], [ %.0512, %43 ]
  %.2 = phi i32 [ %.04, %54 ], [ %.04, %51 ], [ %.04, %56 ], [ %spec.select, %59 ], [ %.04, %14 ], [ %.04, %32 ], [ %.04, %33 ], [ %.04, %37 ], [ %.04, %43 ]
  %64 = getelementptr inbounds nuw i8, ptr %.0503, i64 88
  %65 = load ptr, ptr %64, align 8, !tbaa !30
  %.not60 = icmp eq ptr %65, null
  br i1 %.not60, label %70, label %66

66:                                               ; preds = %.critedge
  %67 = getelementptr inbounds nuw i8, ptr %.0503, i64 80
  %68 = load ptr, ptr %67, align 8, !tbaa !33
  %.not61 = icmp eq ptr %68, null
  %69 = zext i1 %.not61 to i32
  br label %70

70:                                               ; preds = %66, %.critedge
  %71 = phi i32 [ 0, %.critedge ], [ %69, %66 ]
  store i32 %71, ptr %11, align 8, !tbaa !31
  %72 = getelementptr inbounds nuw i8, ptr %.0503, i64 112
  %73 = load ptr, ptr %72, align 8
  %74 = tail call fastcc i32 @block_bind_subblock_inner(ptr noundef %11, ptr %1, ptr %73, i32 noundef %3, i32 noundef %.2)
  %75 = add nsw i32 %74, %.253
  %76 = getelementptr inbounds nuw i8, ptr %.0503, i64 128
  %77 = load ptr, ptr %76, align 8
  %78 = tail call fastcc i32 @block_bind_subblock_inner(ptr noundef %11, ptr %1, ptr %77, i32 noundef %3, i32 noundef %.2)
  %79 = add nsw i32 %75, %78
  %80 = load i32, ptr %11, align 8, !tbaa !31
  %.not62 = icmp eq i32 %80, 0
  br i1 %.not62, label %82, label %81

81:                                               ; preds = %70
  store i32 1, ptr %0, align 4, !tbaa !86
  br label %82

82:                                               ; preds = %70, %81, %10
  %.152 = phi i32 [ %.0512, %10 ], [ %79, %81 ], [ %79, %70 ]
  %.1 = phi i32 [ %.04, %10 ], [ %.2, %81 ], [ %.2, %70 ]
  %83 = load ptr, ptr %.0503, align 8, !tbaa !22
  %.not = icmp eq ptr %83, null
  br i1 %.not, label %._crit_edge, label %10, !llvm.loop !98
}